(dp0
S'LRG_548'
p1
S'F10'
p2
sS'LRG_39'
p3
S'CD3G'
p4
sS'LRG_38'
p5
S'CD3E'
p6
sS'LRG_37'
p7
S'CD3D'
p8
sS'LRG_36'
p9
S'CD247'
p10
sS'LRG_35'
p11
S'CD19'
p12
sS'LRG_34'
p13
S'CASP8'
p14
sS'LRG_33'
p15
S'CASP10'
p16
sS'LRG_32'
p17
S'C9'
p18
sS'LRG_31'
p19
S'C8B'
p20
sS'LRG_30'
p21
S'C7'
p22
sS'LRG_391'
p23
S'TTN'
p24
sS'LRG_390'
p25
S'PLN'
p26
sS'LRG_630'
p27
S'ASXL1'
p28
sS'LRG_631'
p29
S'TREM2'
p30
sS'LRG_780'
p31
S'EPHB2'
p32
sS'LRG_781'
p33
S'ACTA2'
p34
sS'LRG_782'
p35
S'STAG2'
p36
sS'LRG_783'
p37
S'TYMS'
p38
sS'LRG_784'
p39
S'XRCC1'
p40
sS'LRG_399'
p41
S'TGFB3'
p42
sS'LRG_786'
p43
S'MAPK1'
p44
sS'LRG_787'
p45
S'GFPT1'
p46
sS'LRG_788'
p47
S'RRM2B'
p48
sS'LRG_789'
p49
S'POLE'
p50
sS'LRG_398'
p51
S'PKP2'
p52
sS'LRG_410'
p53
S'MYPN'
p54
sS'LRG_411'
p55
S'NEBL'
p56
sS'LRG_413'
p57
S'RAF1'
p58
sS'LRG_414'
p59
S'SRI'
p60
sS'LRG_415'
p61
S'SYNM'
p62
sS'LRG_416'
p63
S'TTR'
p64
sS'LRG_417'
p65
S'TXNRD2'
p66
sS'LRG_419'
p67
S'GPD1L'
p68
sS'LRG_559'
p69
S'GATA1'
p70
sS'LRG_558'
p71
S'FGB'
p72
sS'LRG_753'
p73
S'SHOC2'
p74
sS'LRG_551'
p75
S'F2'
p76
sS'LRG_550'
p77
S'F13B'
p78
sS'LRG_553'
p79
S'F5'
p80
sS'LRG_554'
p81
S'F7'
p82
sS'LRG_557'
p83
S'FGA'
p84
sS'LRG_556'
p85
S'F9'
p86
sS'LRG_239'
p87
S'EGR2'
p88
sS'LRG_451'
p89
S'ACADSB'
p90
sS'LRG_230'
p91
S'COL4A3'
p92
sS'LRG_231'
p93
S'COL4A4'
p94
sS'LRG_234'
p95
S'ARHGEF10'
p96
sS'LRG_236'
p97
S'CTDP1'
p98
sS'LRG_1028'
p99
S'FLG'
p100
sS'LRG_1021'
p101
S'FGFR3'
p102
sS'LRG_1020'
p103
S'SLC13A5'
p104
sS'LRG_1022'
p105
S'SLCO1B1'
p106
sS'LRG_1026'
p107
S'RNF43'
p108
sS'LRG_199'
p109
S'DMD'
p110
sS'LRG_730'
p111
S'IL36RN'
p112
sS'LRG_733'
p113
S'UGT1A1'
p114
sS'LRG_198'
p115
S'AGRN'
p116
sS'LRG_669'
p117
S'PRKCG'
p118
sS'LRG_751'
p119
S'NPPA'
p120
sS'LRG_308'
p121
S'PALB2'
p122
sS'LRG_309'
p123
S'PDGFRA'
p124
sS'LRG_304'
p125
S'EGFR'
p126
sS'LRG_306'
p127
S'FANCD2'
p128
sS'LRG_307'
p129
S'KIT'
p130
sS'LRG_300'
p131
S'BRIP1'
p132
sS'LRG_301'
p133
S'CDH1'
p134
sS'LRG_741'
p135
S'ALMS1'
p136
sS'LRG_124'
p137
S'UNG'
p138
sS'LRG_125'
p139
S'WAS'
p140
sS'LRG_126'
p141
S'ZAP70'
p142
sS'LRG_127'
p143
S'CD55'
p144
sS'LRG_120'
p145
S'TNFRSF13B'
p146
sS'LRG_121'
p147
S'TYK2'
p148
sS'LRG_122'
p149
S'UNC13D'
p150
sS'LRG_123'
p151
S'UNC93B1'
p152
sS'LRG_128'
p153
S'BTK'
p154
sS'LRG_129'
p155
S'CFP'
p156
sS'LRG_663'
p157
S'CFTR'
p158
sS'LRG_662'
p159
S'MET'
p160
sS'LRG_193'
p161
S'TNFRSF1A'
p162
sS'LRG_192'
p163
S'STAT5B'
p164
sS'LRG_748'
p165
S'HFE'
p166
sS'LRG_666'
p167
S'AFG3L2'
p168
sS'LRG_601'
p169
S'HRG'
p170
sS'LRG_600'
p171
S'CHST14'
p172
sS'LRG_605'
p173
S'ANKRD26'
p174
sS'LRG_665'
p175
S'UBQLN2'
p176
sS'LRG_607'
p177
S'TYROBP'
p178
sS'LRG_609'
p179
S'ETV6'
p180
sS'LRG_608'
p181
S'CBL'
p182
sS'LRG_664'
p183
S'CCM2'
p184
sS'LRG_73'
p185
S'IL2RA'
p186
sS'LRG_72'
p187
S'IL12RB1'
p188
sS'LRG_71'
p189
S'IL12B'
p190
sS'LRG_70'
p191
S'IKBKG'
p192
sS'LRG_77'
p193
S'JAK3'
p194
sS'LRG_76'
p195
S'ITGB2'
p196
sS'LRG_75'
p197
S'IRAK4'
p198
sS'LRG_74'
p199
S'IL7R'
p200
sS'LRG_599'
p201
S'PROC'
p202
sS'LRG_79'
p203
S'LIG4'
p204
sS'LRG_78'
p205
S'LIG1'
p206
sS'LRG_722'
p207
S'DPYD'
p208
sS'LRG_723'
p209
S'GSTP1'
p210
sS'LRG_90'
p211
S'NHEJ1'
p212
sS'LRG_868'
p213
S'ANO5'
p214
sS'LRG_867'
p215
S'FRMD7'
p216
sS'LRG_879'
p217
S'GFI1B'
p218
sS'LRG_860'
p219
S'VMA21'
p220
sS'LRG_862'
p221
S'TSPYL1'
p222
sS'LRG_519'
p223
S'SDHAF2'
p224
sS'LRG_518'
p225
S'RET'
p226
sS'LRG_515'
p227
S'PTCH1'
p228
sS'LRG_514'
p229
S'PRKAR1A'
p230
sS'LRG_517'
p231
S'RB1'
p232
sS'LRG_516'
p233
S'RAD51D'
p234
sS'LRG_511'
p235
S'NF2'
p236
sS'LRG_510'
p237
S'MPL'
p238
sS'LRG_513'
p239
S'PHOX2B'
p240
sS'LRG_512'
p241
S'NSD1'
p242
sS'LRG_340'
p243
S'DHCR7'
p244
sS'LRG_341'
p245
S'UNC119'
p246
sS'LRG_343'
p247
S'TERT'
p248
sS'LRG_345'
p249
S'NOP10'
p250
sS'LRG_346'
p251
S'NHP2'
p252
sS'LRG_347'
p253
S'TERC'
p254
sS'LRG_348'
p255
S'CR2'
p256
sS'LRG_349'
p257
S'MASP1'
p258
sS'LRG_85'
p259
S'MRE11'
p260
sS'LRG_469'
p261
S'GTF2H5'
p262
sS'LRG_583'
p263
S'F11'
p264
sS'LRG_581'
p265
S'TUBB1'
p266
sS'LRG_586'
p267
S'HPS5'
p268
sS'LRG_461'
p269
S'ERCC2'
p270
sS'LRG_460'
p271
S'AIP'
p272
sS'LRG_463'
p273
S'ERCC4'
p274
sS'LRG_462'
p275
S'ERCC3'
p276
sS'LRG_465'
p277
S'ERCC6'
p278
sS'LRG_464'
p279
S'ERCC5'
p280
sS'LRG_467'
p281
S'DDB2'
p282
sS'LRG_466'
p283
S'ERCC8'
p284
sS'LRG_241'
p285
S'FIG4'
p286
sS'LRG_169'
p287
S'APOL1'
p288
sS'LRG_243'
p289
S'GARS'
p290
sS'LRG_242'
p291
S'GAN'
p292
sS'LRG_245'
p293
S'GJB1'
p294
sS'LRG_246'
p295
S'HOXD10'
p296
sS'LRG_249'
p297
S'HSPB8'
p298
sS'LRG_248'
p299
S'HSPB1'
p300
sS'LRG_162'
p301
S'PRKDC'
p302
sS'LRG_163'
p303
S'RMRP'
p304
sS'LRG_164'
p305
S'STIM1'
p306
sS'LRG_165'
p307
S'STXBP2'
p308
sS'LRG_640'
p309
S'SRSF2'
p310
sS'LRG_643'
p311
S'GLDC'
p312
sS'LRG_642'
p313
S'AMN'
p314
sS'LRG_1018'
p315
S'SRC'
p316
sS'LRG_887'
p317
S'NPHS2'
p318
sS'LRG_886'
p319
S'ACTN1'
p320
sS'LRG_885'
p321
S'SERPINF2'
p322
sS'LRG_884'
p323
S'VPS33B'
p324
sS'LRG_883'
p325
S'BLOC1S6'
p326
sS'LRG_83'
p327
S'MLPH'
p328
sS'LRG_768'
p329
S'LYZ'
p330
sS'LRG_880'
p331
S'EPPK1'
p332
sS'LRG_766'
p333
S'RYR1'
p334
sS'LRG_767'
p335
S'APOA1'
p336
sS'LRG_760'
p337
S'MURC'
p338
sS'LRG_785'
p339
S'POLD1'
p340
sS'LRG_828'
p341
S'CALR'
p342
sS'LRG_48'
p343
S'CFI'
p344
sS'LRG_49'
p345
S'CIITA'
p346
sS'LRG_42'
p347
S'CD79A'
p348
sS'LRG_43'
p349
S'CD79B'
p350
sS'LRG_40'
p351
S'CD40'
p352
sS'LRG_41'
p353
S'CD59'
p354
sS'LRG_46'
p355
S'CFD'
p356
sS'LRG_47'
p357
S'CFH'
p358
sS'LRG_44'
p359
S'CD8A'
p360
sS'LRG_45'
p361
S'CEBPE'
p362
sS'LRG_589'
p363
S'ENG'
p364
sS'LRG_855'
p365
S'CHKB'
p366
sS'LRG_168'
p367
S'THBD'
p368
sS'LRG_837'
p369
S'SLC40A1'
p370
sS'LRG_839'
p371
S'MTM1'
p372
sS'LRG_546'
p373
S'BLOC1S3'
p374
sS'LRG_627'
p375
S'BCOR'
p376
sS'LRG_544'
p377
S'ADAMTS13'
p378
sS'LRG_429'
p379
S'ACTA1'
p380
sS'LRG_543'
p381
S'ACVRL1'
p382
sS'LRG_540'
p383
S'CUBN'
p384
sS'LRG_541'
p385
S'GCSH'
p386
sS'LRG_424'
p387
S'ADORA3'
p388
sS'LRG_426'
p389
S'MYOM1'
p390
sS'LRG_421'
p391
S'SCN3B'
p392
sS'LRG_625'
p393
S'PRPF40B'
p394
sS'LRG_423'
p395
S'DSP'
p396
sS'LRG_422'
p397
S'CALR3'
p398
sS'LRG_160'
p399
S'PIGA'
p400
sS'LRG_624'
p401
S'SF3B1'
p402
sS'LRG_161'
p403
S'PMS2'
p404
sS'LRG_623'
p405
S'U2AF2'
p406
sS'LRG_622'
p407
S'SF3A1'
p408
sS'LRG_620'
p409
S'BCL2L11'
p410
sS'LRG_689'
p411
S'CLN3'
p412
sS'LRG_688'
p413
S'TMEM67'
p414
sS'LRG_720'
p415
S'PAX6'
p416
sS'LRG_721'
p417
S'AKT1'
p418
sS'LRG_726'
p419
S'MTHFR'
p420
sS'LRG_727'
p421
S'TYMP'
p422
sS'LRG_724'
p423
S'ERBB2'
p424
sS'LRG_725'
p425
S'MAP2K1'
p426
sS'LRG_680'
p427
S'TPM2'
p428
sS'LRG_683'
p429
S'SLC26A3'
p430
sS'LRG_682'
p431
S'KBTBD13'
p432
sS'LRG_685'
p433
S'OAT'
p434
sS'LRG_684'
p435
S'SLC26A2'
p436
sS'LRG_687'
p437
S'MKS1'
p438
sS'LRG_338'
p439
S'LCT'
p440
sS'LRG_331'
p441
S'AKAP9'
p442
sS'LRG_330'
p443
S'SCN4B'
p444
sS'LRG_333'
p445
S'KCNJ5'
p446
sS'LRG_332'
p447
S'SNTA1'
p448
sS'LRG_335'
p449
S'ELF4'
p450
sS'LRG_334'
p451
S'CACNA1C'
p452
sS'LRG_337'
p453
S'OPA1'
p454
sS'LRG_336'
p455
S'CPS1'
p456
sS'LRG_111'
p457
S'STAT1'
p458
sS'LRG_110'
p459
S'SPINK5'
p460
sS'LRG_113'
p461
S'STX11'
p462
sS'LRG_112'
p463
S'STAT3'
p464
sS'LRG_115'
p465
S'TCIRG1'
p466
sS'LRG_114'
p467
S'TAPBP'
p468
sS'LRG_117'
p469
S'TLR3'
p470
sS'LRG_116'
p471
S'TCN2'
p472
sS'LRG_119'
p473
S'TMC8'
p474
sS'LRG_118'
p475
S'TMC6'
p476
sS'LRG_8'
p477
S'SCN1A'
p478
sS'LRG_5'
p479
S'P3H1'
p480
sS'LRG_4'
p481
S'CRTAP'
p482
sS'LRG_7'
p483
S'CACNA1A'
p484
sS'LRG_6'
p485
S'ATP1A2'
p486
sS'LRG_1'
p487
S'COL1A1'
p488
sS'LRG_3'
p489
S'COL3A1'
p490
sS'LRG_2'
p491
S'COL1A2'
p492
sS'LRG_755'
p493
S'TBX20'
p494
sS'LRG_205'
p495
S'SGCD'
p496
sS'LRG_204'
p497
S'SGCB'
p498
sS'LRG_207'
p499
S'SGCG'
p500
sS'LRG_754'
p501
S'SOS1'
p502
sS'LRG_201'
p503
S'MYOT'
p504
sS'LRG_200'
p505
S'MSTN'
p506
sS'LRG_203'
p507
S'SGCA'
p508
sS'LRG_202'
p509
S'NEB'
p510
sS'LRG_616'
p511
S'KDM6A'
p512
sS'LRG_617'
p513
S'SF1'
p514
sS'LRG_614'
p515
S'PTPN11'
p516
sS'LRG_615'
p517
S'U2AF1'
p518
sS'LRG_209'
p519
S'SSPN'
p520
sS'LRG_208'
p521
S'SGCZ'
p522
sS'LRG_610'
p523
S'IDH1'
p524
sS'LRG_611'
p525
S'IDH2'
p526
sS'LRG_618'
p527
S'ZRSR2'
p528
sS'LRG_88'
p529
S'NCF2'
p530
sS'LRG_89'
p531
S'NFKBIA'
p532
sS'LRG_86'
p533
S'MYO5A'
p534
sS'LRG_84'
p535
S'MPO'
p536
sS'LRG_619'
p537
S'SOCS3'
p538
sS'LRG_750'
p539
S'MAP2K2'
p540
sS'LRG_80'
p541
S'LRRC8A'
p542
sS'LRG_81'
p543
S'LAMTOR2'
p544
sS'LRG_549'
p545
S'F13A1'
p546
sS'LRG_612'
p547
S'JAK2'
p548
sS'LRG_613'
p549
S'KMT2A'
p550
sS'LRG_759'
p551
S'MIB1'
p552
sS'LRG_15'
p553
S'UBE3A'
p554
sS'LRG_17'
p555
S'AICDA'
p556
sS'LRG_16'
p557
S'ADA'
p558
sS'LRG_11'
p559
S'CDKN2A'
p560
sS'LRG_10'
p561
S'PPIB'
p562
sS'LRG_13'
p563
S'CALCA'
p564
sS'LRG_12'
p565
S'FKBP10'
p566
sS'LRG_870'
p567
S'FLNC'
p568
sS'LRG_19'
p569
S'XIAP'
p570
sS'LRG_18'
p571
S'AIRE'
p572
sS'LRG_875'
p573
S'ARID1A'
p574
sS'LRG_509'
p575
S'MEN1'
p576
sS'LRG_502'
p577
S'FANCM'
p578
sS'LRG_503'
p579
S'SLX4'
p580
sS'LRG_500'
p581
S'FANCI'
p582
sS'LRG_501'
p583
S'FANCL'
p584
sS'LRG_507'
p585
S'CDC73'
p586
sS'LRG_504'
p587
S'FH'
p588
sS'LRG_505'
p589
S'GPC3'
p590
sS'LRG_489'
p591
S'BUB1B'
p592
sS'LRG_488'
p593
S'ALK'
p594
sS'LRG_734'
p595
S'MTOR'
p596
sS'LRG_483'
p597
S'HNF4A'
p598
sS'LRG_482'
p599
S'RUNX1'
p600
sS'LRG_481'
p601
S'ITGB3'
p602
sS'LRG_487'
p603
S'TSC2'
p604
sS'LRG_486'
p605
S'TSC1'
p606
sS'LRG_485'
p607
S'CSTB'
p608
sS'LRG_484'
p609
S'GLE1'
p610
sS'LRG_476'
p611
S'COL6A2'
p612
sS'LRG_477'
p613
S'GP9'
p614
sS'LRG_474'
p615
S'DDB1'
p616
sS'LRG_475'
p617
S'COL6A1'
p618
sS'LRG_379'
p619
S'ANKRD1'
p620
sS'LRG_378'
p621
S'TNNC1'
p622
sS'LRG_470'
p623
S'POLH'
p624
sS'LRG_471'
p625
S'XPA'
p626
sS'LRG_375'
p627
S'WRAP53'
p628
sS'LRG_374'
p629
S'WIPF1'
p630
sS'LRG_177'
p631
S'NOD2'
p632
sS'LRG_376'
p633
S'PLCG2'
p634
sS'LRG_371'
p635
S'SPTLC2'
p636
sS'LRG_373'
p637
S'LRSAM1'
p638
sS'LRG_372'
p639
S'TRPV4'
p640
sS'LRG_579'
p641
S'TBXAS1'
p642
sS'LRG_578'
p643
S'TBXA2R'
p644
sS'LRG_577'
p645
S'SERPINC1'
p646
sS'LRG_574'
p647
S'RBM8A'
p648
sS'LRG_572'
p649
S'PROS1'
p650
sS'LRG_571'
p651
S'PLG'
p652
sS'LRG_570'
p653
S'PLAT'
p654
sS'LRG_397'
p655
S'DSG2'
p656
sS'LRG_396'
p657
S'MYOZ2'
p658
sS'LRG_395'
p659
S'MYL3'
p660
sS'LRG_394'
p661
S'JPH2'
p662
sS'LRG_393'
p663
S'MYL2'
p664
sS'LRG_392'
p665
S'MYLK2'
p666
sS'LRG_258'
p667
S'NDRG1'
p668
sS'LRG_259'
p669
S'NEFL'
p670
sS'LRG_256'
p671
S'MPZ'
p672
sS'LRG_257'
p673
S'MTMR2'
p674
sS'LRG_254'
p675
S'LMNA'
p676
sS'LRG_255'
p677
S'MFN2'
p678
sS'LRG_252'
p679
S'KIF1B'
p680
sS'LRG_253'
p681
S'LITAF'
p682
sS'LRG_250'
p683
S'IGHMBP2'
p684
sS'LRG_251'
p685
S'IKBKAP'
p686
sS'LRG_652'
p687
S'SOD1'
p688
sS'LRG_653'
p689
S'ANG'
p690
sS'LRG_650'
p691
S'KRIT1'
p692
sS'LRG_656'
p693
S'VAPB'
p694
sS'LRG_657'
p695
S'VCP'
p696
sS'LRG_655'
p697
S'FUS'
p698
sS'LRG_659'
p699
S'TARDBP'
p700
sS'LRG_719'
p701
S'SOX2'
p702
sS'LRG_713'
p703
S'REEP1'
p704
sS'LRG_712'
p705
S'BMPR2'
p706
sS'LRG_717'
p707
S'AQP2'
p708
sS'LRG_715'
p709
S'AVP'
p710
sS'LRG_714'
p711
S'SPAST'
p712
sS'LRG_298'
p713
S'BMPR1A'
p714
sS'LRG_299'
p715
S'BRAF'
p716
sS'LRG_155'
p717
S'CD46'
p718
sS'LRG_154'
p719
S'MBL2'
p720
sS'LRG_157'
p721
S'MYD88'
p722
sS'LRG_156'
p723
S'MVK'
p724
sS'LRG_151'
p725
S'IL10RA'
p726
sS'LRG_150'
p727
S'IL2RG'
p728
sS'LRG_621'
p729
S'SH2B3'
p730
sS'LRG_152'
p731
S'IL10RB'
p732
sS'LRG_159'
p733
S'NCF4'
p734
sS'LRG_158'
p735
S'NBN'
p736
sS'LRG_629'
p737
S'PHF6'
p738
sS'LRG_628'
p739
S'BCORL1'
p740
sS'LRG_291'
p741
S'KCNE2'
p742
sS'LRG_279'
p743
S'RNASEH2B'
p744
sS'LRG_59'
p745
S'FCGR1A'
p746
sS'LRG_58'
p747
S'FASLG'
p748
sS'LRG_51'
p749
S'CXCR4'
p750
sS'LRG_50'
p751
S'CTSC'
p752
sS'LRG_53'
p753
S'CYBB'
p754
sS'LRG_52'
p755
S'CYBA'
p756
sS'LRG_55'
p757
S'DKC1'
p758
sS'LRG_54'
p759
S'DCLRE1C'
p760
sS'LRG_57'
p761
S'ELANE'
p762
sS'LRG_56'
p763
S'DNMT3B'
p764
sS'LRG_590'
p765
S'HPS4'
p766
sS'LRG_401'
p767
S'JUP'
p768
sS'LRG_400'
p769
S'DSC2'
p770
sS'LRG_847'
p771
S'PIN1'
p772
sS'LRG_844'
p773
S'POMT2'
p774
sS'LRG_533'
p775
S'CDKN1C'
p776
sS'LRG_532'
p777
S'RHBDF2'
p778
sS'LRG_531'
p779
S'EZH2'
p780
sS'LRG_439'
p781
S'KCNE3'
p782
sS'LRG_537'
p783
S'AMT'
p784
sS'LRG_536'
p785
S'FSHR'
p786
sS'LRG_535'
p787
S'STK4'
p788
sS'LRG_534'
p789
S'DIS3L2'
p790
sS'LRG_432'
p791
S'TNNI3'
p792
sS'LRG_433'
p793
S'LAMA4'
p794
sS'LRG_539'
p795
S'BCS1L'
p796
sS'LRG_538'
p797
S'KERA'
p798
sS'LRG_437'
p799
S'CACNA2D1'
p800
sS'LRG_434'
p801
S'FKTN'
p802
sS'LRG_435'
p803
S'TMEM43'
p804
sS'LRG_408'
p805
S'CTF1'
p806
sS'LRG_179'
p807
S'CLEC7A'
p808
sS'LRG_697'
p809
S'CC2D2A'
p810
sS'LRG_695'
p811
S'SLC7A7'
p812
sS'LRG_692'
p813
S'CLN5'
p814
sS'LRG_693'
p815
S'NPHS1'
p816
sS'LRG_690'
p817
S'PPT1'
p818
sS'LRG_691'
p819
S'CLN8'
p820
sS'LRG_699'
p821
S'CHM'
p822
sS'LRG_326'
p823
S'ZBTB24'
p824
sS'LRG_327'
p825
S'ANK2'
p826
sS'LRG_325'
p827
S'FLCN'
p828
sS'LRG_289'
p829
S'SCN5A'
p830
sS'LRG_288'
p831
S'KCNH2'
p832
sS'LRG_321'
p833
S'TP53'
p834
sS'LRG_285'
p835
S'FXR2'
p836
sS'LRG_284'
p837
S'ZNF778'
p838
sS'LRG_287'
p839
S'KCNQ1'
p840
sS'LRG_286'
p841
S'COL7A1'
p842
sS'LRG_281'
p843
S'SAMHD1'
p844
sS'LRG_280'
p845
S'RNASEH2C'
p846
sS'LRG_328'
p847
S'KCNJ2'
p848
sS'LRG_329'
p849
S'CAV3'
p850
sS'LRG_992'
p851
S'ESR1'
p852
sS'LRG_449'
p853
S'AUH'
p854
sS'LRG_448'
p855
S'ACAD8'
p856
sS'LRG_447'
p857
S'HMGCS2'
p858
sS'LRG_446'
p859
S'TCF21'
p860
sS'LRG_445'
p861
S'KCND3'
p862
sS'LRG_444'
p863
S'ILK'
p864
sS'LRG_443'
p865
S'TMPO'
p866
sS'LRG_442'
p867
S'NEXN'
p868
sS'LRG_440'
p869
S'CSRP3'
p870
sS'LRG_267'
p871
S'SBF2'
p872
sS'LRG_266'
p873
S'RAB7A'
p874
sS'LRG_265'
p875
S'PRX'
p876
sS'LRG_264'
p877
S'PRPS1'
p878
sS'LRG_263'
p879
S'PMP22'
p880
sS'LRG_262'
p881
S'PLEKHG5'
p882
sS'LRG_261'
p883
S'NTRK1'
p884
sS'LRG_109'
p885
S'SP110'
p886
sS'LRG_106'
p887
S'SH2D1A'
p888
sS'LRG_107'
p889
S'SLC35C1'
p890
sS'LRG_104'
p891
S'SBDS'
p892
sS'LRG_105'
p893
S'SERPING1'
p894
sS'LRG_102'
p895
S'RFXANK'
p896
sS'LRG_103'
p897
S'RFXAP'
p898
sS'LRG_269'
p899
S'SH3TC2'
p900
sS'LRG_101'
p901
S'RFX5'
p902
sS'LRG_530'
p903
S'MAX'
p904
sS'LRG_212'
p905
S'ZMPSTE24'
p906
sS'LRG_213'
p907
S'CFL2'
p908
sS'LRG_210'
p909
S'TCAP'
p910
sS'LRG_211'
p911
S'TRIM32'
p912
sS'LRG_216'
p913
S'MLH1'
p914
sS'LRG_217'
p915
S'MLH3'
p916
sS'LRG_214'
p917
S'NF1'
p918
sS'LRG_215'
p919
S'EPCAM'
p920
sS'LRG_191'
p921
S'PIK3CD'
p922
sS'LRG_190'
p923
S'MEFV'
p924
sS'LRG_218'
p925
S'MSH2'
p926
sS'LRG_219'
p927
S'MSH6'
p928
sS'LRG_195'
p929
S'CORO1A'
p930
sS'LRG_194'
p931
S'TNFRSF11A'
p932
sS'LRG_197'
p933
S'NLRP3'
p934
sS'LRG_196'
p935
S'DOCK8'
p936
sS'LRG_99'
p937
S'RAG2'
p938
sS'LRG_98'
p939
S'RAG1'
p940
sS'LRG_94'
p941
S'PRF1'
p942
sS'LRG_97'
p943
S'RAC2'
p944
sS'LRG_96'
p945
S'RAB27A'
p946
sS'LRG_91'
p947
S'PNP'
p948
sS'LRG_229'
p949
S'TRAF3'
p950
sS'LRG_93'
p951
S'ORAI1'
p952
sS'LRG_92'
p953
S'NRAS'
p954
sS'LRG_744'
p955
S'DOLK'
p956
sS'LRG_876'
p957
S'CYCS'
p958
sS'LRG_745'
p959
S'EMD'
p960
sS'LRG_661'
p961
S'GRN'
p962
sS'LRG_227'
p963
S'CFHR5'
p964
sS'LRG_389'
p965
S'MYH6'
p966
sS'LRG_20'
p967
S'BLM'
p968
sS'LRG_21'
p969
S'BLNK'
p970
sS'LRG_22'
p971
S'C1QA'
p972
sS'LRG_23'
p973
S'C1QB'
p974
sS'LRG_24'
p975
S'C1QC'
p976
sS'LRG_25'
p977
S'C1S'
p978
sS'LRG_26'
p979
S'C2'
p980
sS'LRG_27'
p981
S'C3'
p982
sS'LRG_28'
p983
S'C5'
p984
sS'LRG_29'
p985
S'C6'
p986
sS'LRG_183'
p987
S'SLC46A1'
p988
sS'LRG_359'
p989
S'AARS'
p990
sS'LRG_498'
p991
S'FANCE'
p992
sS'LRG_499'
p993
S'FANCG'
p994
sS'LRG_490'
p995
S'CDK4'
p996
sS'LRG_491'
p997
S'CYLD'
p998
sS'LRG_492'
p999
S'DICER1'
p1000
sS'LRG_493'
p1001
S'EXT1'
p1002
sS'LRG_494'
p1003
S'EXT2'
p1004
sS'LRG_495'
p1005
S'FANCA'
p1006
sS'LRG_496'
p1007
S'FANCB'
p1008
sS'LRG_497'
p1009
S'FANCC'
p1010
sS'LRG_403'
p1011
S'BMP10'
p1012
sS'LRG_368'
p1013
S'MED25'
p1014
sS'LRG_369'
p1015
S'SCN9A'
p1016
sS'LRG_406'
p1017
S'COX15'
p1018
sS'LRG_405'
p1019
S'CHRM2'
p1020
sS'LRG_404'
p1021
S'CASQ2'
p1022
sS'LRG_362'
p1023
S'DNMT1'
p1024
sS'LRG_363'
p1025
S'FAM134B'
p1026
sS'LRG_409'
p1027
S'LAMA2'
p1028
sS'LRG_361'
p1029
S'CCT5'
p1030
sS'LRG_366'
p1031
S'KARS'
p1032
sS'LRG_364'
p1033
S'FBLN5'
p1034
sS'LRG_365'
p1035
S'HK1'
p1036
sS'LRG_568'
p1037
S'NBEAL2'
p1038
sS'LRG_569'
p1039
S'P2RY12'
p1040
sS'LRG_564'
p1041
S'HPS6'
p1042
sS'LRG_566'
p1043
S'MCFD2'
p1044
sS'LRG_567'
p1045
S'MYH9'
p1046
sS'LRG_560'
p1047
S'GP6'
p1048
sS'LRG_561'
p1049
S'HOXA11'
p1050
sS'LRG_384'
p1051
S'MYH7'
p1052
sS'LRG_385'
p1053
S'LDB3'
p1054
sS'LRG_386'
p1055
S'MYBPC3'
p1056
sS'LRG_228'
p1057
S'FADD'
p1058
sS'LRG_380'
p1059
S'DES'
p1060
sS'LRG_742'
p1061
S'BAG3'
p1062
sS'LRG_382'
p1063
S'RBM20'
p1064
sS'LRG_383'
p1065
S'VCL'
p1066
sS'LRG_221'
p1067
S'PMS1'
p1068
sS'LRG_220'
p1069
S'MUTYH'
p1070
sS'LRG_388'
p1071
S'ACTC1'
p1072
sS'LRG_226'
p1073
S'TBX1'
p1074
sS'LRG_779'
p1075
S'TGFBR2'
p1076
sS'LRG_588'
p1077
S'DTNBP1'
p1078
sS'LRG_319'
p1079
S'STK11'
p1080
sS'LRG_318'
p1081
S'SMAD4'
p1082
sS'LRG_317'
p1083
S'SDHC'
p1084
sS'LRG_316'
p1085
S'SDHB'
p1086
sS'LRG_702'
p1087
S'RS1'
p1088
sS'LRG_314'
p1089
S'RAD51C'
p1090
sS'LRG_311'
p1091
S'PTEN'
p1092
sS'LRG_310'
p1093
S'PIK3CA'
p1094
sS'LRG_137'
p1095
S'C4A'
p1096
sS'LRG_136'
p1097
S'CFB'
p1098
sS'LRG_135'
p1099
S'ATM'
p1100
sS'LRG_134'
p1101
S'FAS'
p1102
sS'LRG_133'
p1103
S'AK2'
p1104
sS'LRG_132'
p1105
S'ACTB'
p1106
sS'LRG_130'
p1107
S'APC'
p1108
sS'LRG_139'
p1109
S'C8A'
p1110
sS'LRG_138'
p1111
S'C4B'
p1112
sS'LRG_142'
p1113
S'CD81'
p1114
sS'LRG_143'
p1115
S'LYST'
p1116
sS'LRG_140'
p1117
S'MS4A1'
p1118
sS'LRG_141'
p1119
S'CD40LG'
p1120
sS'LRG_146'
p1121
S'FPR1'
p1122
sS'LRG_147'
p1123
S'G6PC'
p1124
sS'LRG_144'
p1125
S'CSF3R'
p1126
sS'LRG_145'
p1127
S'F12'
p1128
sS'LRG_148'
p1129
S'G6PD'
p1130
sS'LRG_149'
p1131
S'CFHR1'
p1132
sS'LRG_64'
p1133
S'HAX1'
p1134
sS'LRG_65'
p1135
S'ICOS'
p1136
sS'LRG_66'
p1137
S'IFNGR1'
p1138
sS'LRG_67'
p1139
S'IFNGR2'
p1140
sS'LRG_60'
p1141
S'FCGR3A'
p1142
sS'LRG_61'
p1143
S'FOXN1'
p1144
sS'LRG_62'
p1145
S'FOXP3'
p1146
sS'LRG_63'
p1147
S'GFI1'
p1148
sS'LRG_69'
p1149
S'IGLL1'
p1150
sS'LRG_700'
p1151
S'CLRN1'
p1152
sS'LRG_322'
p1153
S'VHL'
p1154
sS'LRG_703'
p1155
S'SMAD9'
p1156
sS'LRG_626'
p1157
S'TET2'
p1158
sS'LRG_283'
p1159
S'LEPR'
p1160
sS'LRG_749'
p1161
S'LAMP2'
p1162
sS'LRG_520'
p1163
S'SMARCB1'
p1164
sS'LRG_521'
p1165
S'SUFU'
p1166
sS'LRG_522'
p1167
S'HNF1A'
p1168
sS'LRG_523'
p1169
S'TSHR'
p1170
sS'LRG_524'
p1171
S'WRN'
p1172
sS'LRG_525'
p1173
S'WT1'
p1174
sS'LRG_526'
p1175
S'CEP57'
p1176
sS'LRG_527'
p1177
S'FANCF'
p1178
sS'LRG_528'
p1179
S'TMEM127'
p1180
sS'LRG_529'
p1181
S'BAP1'
p1182
sS'LRG_472'
p1183
S'XPC'
p1184
sS'LRG_473'
p1185
S'COL6A3'
p1186
sS'LRG_353'
p1187
S'MAGT1'
p1188
sS'LRG_352'
p1189
S'USB1'
p1190
sS'LRG_351'
p1191
S'VPS13B'
p1192
sS'LRG_350'
p1193
S'COLEC11'
p1194
sS'LRG_357'
p1195
S'CD27'
p1196
sS'LRG_356'
p1197
S'IL17F'
p1198
sS'LRG_355'
p1199
S'IL17RA'
p1200
sS'LRG_354'
p1201
S'ITCH'
p1202
sS'LRG_292'
p1203
S'BRCA1'
p1204
sS'LRG_293'
p1205
S'BRCA2'
p1206
sS'LRG_290'
p1207
S'KCNE1'
p1208
sS'LRG_358'
p1209
S'TICAM1'
p1210
sS'LRG_296'
p1211
S'AXIN2'
p1212
sS'LRG_294'
p1213
S'IRF8'
p1214
sS'LRG_295'
p1215
S'GATA2'
p1216
sS'LRG_597'
p1217
S'SERPINE1'
p1218
sS'LRG_458'
p1219
S'NPM1'
p1220
sS'LRG_459'
p1221
S'DNMT3A'
p1222
sS'LRG_593'
p1223
S'PLAU'
p1224
sS'LRG_454'
p1225
S'FKBP14'
p1226
sS'LRG_455'
p1227
S'ROGDI'
p1228
sS'LRG_456'
p1229
S'CEBPA'
p1230
sS'LRG_457'
p1231
S'FLT3'
p1232
sS'LRG_450'
p1233
S'HSD17B10'
p1234
sS'LRG_377'
p1235
S'ABCC9'
p1236
sS'LRG_452'
p1237
S'FOXD4'
p1238
sS'LRG_274'
p1239
S'LDLR'
p1240
sS'LRG_275'
p1241
S'PCSK9'
p1242
sS'LRG_276'
p1243
S'LDLRAP1'
p1244
sS'LRG_178'
p1245
S'CARD9'
p1246
sS'LRG_270'
p1247
S'SLC12A6'
p1248
sS'LRG_271'
p1249
S'SOX10'
p1250
sS'LRG_272'
p1251
S'SPTLC1'
p1252
sS'LRG_273'
p1253
S'YARS'
p1254
sS'LRG_173'
p1255
S'TTC37'
p1256
sS'LRG_172'
p1257
S'PSTPIP1'
p1258
sS'LRG_171'
p1259
S'FCN3'
p1260
sS'LRG_170'
p1261
S'AP3B1'
p1262
sS'LRG_278'
p1263
S'RNASEH2A'
p1264
sS'LRG_176'
p1265
S'CHD7'
p1266
sS'LRG_175'
p1267
S'CFHR3'
p1268
sS'LRG_174'
p1269
S'LPIN2'
p1270
sS'LRG_478'
p1271
S'GP1BB'
p1272
sS'LRG_479'
p1273
S'ITGA2B'
p1274
sS'LRG_186'
p1275
S'CSF2RA'
p1276
sS'LRG_187'
p1277
S'SLC37A4'
p1278
sS'LRG_184'
p1279
S'TNFRSF13C'
p1280
sS'LRG_185'
p1281
S'RNF168'
p1282
sS'LRG_182'
p1283
S'G6PC3'
p1284
sS'LRG_108'
p1285
S'SMARCAL1'
p1286
sS'LRG_180'
p1287
S'FERMT3'
p1288
sS'LRG_260'
p1289
S'NGF'
p1290
sS'LRG_188'
p1291
S'IL1RN'
p1292
sS'LRG_189'
p1293
S'ITK'
p1294
sS'LRG_771'
p1295
S'HOXB13'
p1296
sS'LRG_770'
p1297
S'PPM1D'
p1298
sS'LRG_773'
p1299
S'SMC1A'
p1300
sS'LRG_772'
p1301
S'RAD21'
p1302
sS'LRG_775'
p1303
S'SETD2'
p1304
sS'LRG_774'
p1305
S'SMC3'
p1306
sS'LRG_777'
p1307
S'CBS'
p1308
sS'LRG_776'
p1309
S'MITF'
p1310
sS'LRG_670'
p1311
S'TBX5'
p1312
sS'LRG_778'
p1313
S'FBN1'
p1314
sS'LRG_672'
p1315
S'GLA'
p1316
sS'LRG_673'
p1317
S'GAA'
p1318
sS'LRG_674'
p1319
S'SALL1'
p1320
sS'LRG_675'
p1321
S'SALL4'
p1322
sS'LRG_676'
p1323
S'SMN1'
p1324
sS'LRG_100'
p1325
S'RASGRP2'
p1326
sS'LRG_268'
p1327
S'SETX'
p1328
sS'LRG_757'
p1329
S'TRIM63'
p1330
s.